target datalayout = "e-m:e-p270:32:32-p271:32:32-p272:64:64-i64:64-i128:128-f80:128-n8:16:32:64-S128"
target triple = "x86_64-pc-linux-gnu"

%struct.SDL_AudioQueue = type { ptr, ptr, ptr, i64, i64, %struct.SDL_MemoryPool, %struct.SDL_MemoryPool }
%struct.SDL_MemoryPool = type { ptr, i64, i64, i64 }
%struct.SDL_AudioTrack = type { %struct.SDL_AudioSpec, ptr, i8, ptr, ptr, ptr, ptr, i64, i64, i64, [8 x i32] }
%struct.SDL_AudioSpec = type { i32, i32, i32 }

; Function Attrs: nounwind uwtable
define hidden i64 @SDL_NextAudioQueueIter(ptr noundef %0, ptr noundef %1, ptr noundef %2, ptr noundef %3, ptr noundef %4) #0 {
  %6 = alloca ptr, align 8
  %7 = alloca ptr, align 8
  %8 = alloca ptr, align 8
  %9 = alloca ptr, align 8
  %10 = alloca ptr, align 8
  %11 = alloca ptr, align 8
  %12 = alloca i8, align 1
  %13 = alloca i64, align 8
  %14 = alloca ptr, align 8
  %15 = alloca i64, align 8
  %16 = alloca i32, align 4
  store ptr %0, ptr %6, align 8
  store ptr %1, ptr %7, align 8
  store ptr %2, ptr %8, align 8
  store ptr %3, ptr %9, align 8
  store ptr %4, ptr %10, align 8
  call void @llvm.lifetime.start.p0(i64 8, ptr %11) #6
  %17 = load ptr, ptr %7, align 8
  %18 = load ptr, ptr %17, align 8
  store ptr %18, ptr %11, align 8
  br label %19

19:                                               ; preds = %5
  br label %20

20:                                               ; preds = %19
  br label %21

21:                                               ; preds = %20
  %22 = load ptr, ptr %8, align 8
  %23 = load ptr, ptr %11, align 8
  %24 = getelementptr inbounds nuw %struct.SDL_AudioTrack, ptr %23, i32 0, i32 0
  call void @llvm.memcpy.p0.p0.i64(ptr align 4 %22, ptr align 8 %24, i64 12, i1 false)
  %25 = load ptr, ptr %11, align 8
  %26 = getelementptr inbounds nuw %struct.SDL_AudioTrack, ptr %25, i32 0, i32 1
  %27 = load ptr, ptr %26, align 8
  %28 = load ptr, ptr %9, align 8
  store ptr %27, ptr %28, align 8
  call void @llvm.lifetime.start.p0(i64 1, ptr %12) #6
  store i8 0, ptr %12, align 1
  call void @llvm.lifetime.start.p0(i64 8, ptr %13) #6
  store i64 0, ptr %13, align 8
  br label %29

29:                                               ; preds = %64, %21
  %30 = load ptr, ptr %11, align 8
  %31 = icmp ne ptr %30, null
  br i1 %31, label %32, label %65

32:                                               ; preds = %29
  call void @llvm.lifetime.start.p0(i64 8, ptr %14) #6
  %33 = load ptr, ptr %11, align 8
  store ptr %33, ptr %14, align 8
  %34 = load ptr, ptr %11, align 8
  %35 = getelementptr inbounds nuw %struct.SDL_AudioTrack, ptr %34, i32 0, i32 3
  %36 = load ptr, ptr %35, align 8
  store ptr %36, ptr %11, align 8
  call void @llvm.lifetime.start.p0(i64 8, ptr %15) #6
  %37 = load ptr, ptr %14, align 8
  %38 = getelementptr inbounds nuw %struct.SDL_AudioTrack, ptr %37, i32 0, i32 8
  %39 = load i64, ptr %38, align 8
  %40 = load ptr, ptr %14, align 8
  %41 = getelementptr inbounds nuw %struct.SDL_AudioTrack, ptr %40, i32 0, i32 7
  %42 = load i64, ptr %41, align 8
  %43 = sub i64 %39, %42
  store i64 %43, ptr %15, align 8
  %44 = load i64, ptr %15, align 8
  %45 = load i64, ptr %13, align 8
  %46 = sub i64 -1, %45
  %47 = icmp uge i64 %44, %46
  br i1 %47, label %48, label %49

48:                                               ; preds = %32
  store i64 -1, ptr %13, align 8
  store i8 0, ptr %12, align 1
  store i32 5, ptr %16, align 4
  br label %62

49:                                               ; preds = %32
  %50 = load i64, ptr %15, align 8
  %51 = load i64, ptr %13, align 8
  %52 = add i64 %51, %50
  store i64 %52, ptr %13, align 8
  %53 = load ptr, ptr %14, align 8
  %54 = getelementptr inbounds nuw %struct.SDL_AudioTrack, ptr %53, i32 0, i32 2
  %55 = load i8, ptr %54, align 8, !range !7, !noundef !8
  %56 = trunc i8 %55 to i1
  %57 = zext i1 %56 to i8
  store i8 %57, ptr %12, align 1
  %58 = load i8, ptr %12, align 1, !range !7, !noundef !8
  %59 = trunc i8 %58 to i1
  br i1 %59, label %60, label %61

60:                                               ; preds = %49
  store i32 5, ptr %16, align 4
  br label %62

61:                                               ; preds = %49
  store i32 0, ptr %16, align 4
  br label %62

62:                                               ; preds = %61, %60, %48
  call void @llvm.lifetime.end.p0(i64 8, ptr %15) #6
  call void @llvm.lifetime.end.p0(i64 8, ptr %14) #6
  %63 = load i32, ptr %16, align 4
  switch i32 %63, label %73 [
    i32 0, label %64
    i32 5, label %65
  ]

64:                                               ; preds = %62
  br label %29, !llvm.loop !9

65:                                               ; preds = %62, %29
  %66 = load ptr, ptr %11, align 8
  %67 = load ptr, ptr %7, align 8
  store ptr %66, ptr %67, align 8
  %68 = load i8, ptr %12, align 1, !range !7, !noundef !8
  %69 = trunc i8 %68 to i1
  %70 = load ptr, ptr %10, align 8
  %71 = zext i1 %69 to i8
  store i8 %71, ptr %70, align 1
  %72 = load i64, ptr %13, align 8
  store i32 1, ptr %16, align 4
  call void @llvm.lifetime.end.p0(i64 8, ptr %13) #6
  call void @llvm.lifetime.end.p0(i64 1, ptr %12) #6
  call void @llvm.lifetime.end.p0(i64 8, ptr %11) #6
  ret i64 %72

73:                                               ; preds = %62
  unreachable
}

; Function Attrs: nounwind uwtable
define hidden ptr @SDL_BeginAudioQueueIter(ptr noundef %0) #0 {
  %2 = alloca ptr, align 8
  store ptr %0, ptr %2, align 8
  %3 = load ptr, ptr %2, align 8
  %4 = getelementptr inbounds nuw %struct.SDL_AudioQueue, ptr %3, i32 0, i32 0
  %5 = load ptr, ptr %4, align 8
  ret ptr %5
}

; Function Attrs: nounwind uwtable
define hidden i64 @SDL_GetAudioQueueQueued(ptr noundef %0) #0 {
  %2 = alloca ptr, align 8
  %3 = alloca i64, align 8
  %4 = alloca ptr, align 8
  %5 = alloca %struct.SDL_AudioSpec, align 4
  %6 = alloca ptr, align 8
  %7 = alloca i8, align 1
  %8 = alloca i64, align 8
  %9 = alloca i32, align 4
  store ptr %0, ptr %2, align 8
  call void @llvm.lifetime.start.p0(i64 8, ptr %3) #6
  store i64 0, ptr %3, align 8
  call void @llvm.lifetime.start.p0(i64 8, ptr %4) #6
  %10 = load ptr, ptr %2, align 8
  %11 = call ptr @SDL_BeginAudioQueueIter(ptr noundef %10)
  store ptr %11, ptr %4, align 8
  br label %12

12:                                               ; preds = %29, %1
  %13 = load ptr, ptr %4, align 8
  %14 = icmp ne ptr %13, null
  br i1 %14, label %15, label %30

15:                                               ; preds = %12
  call void @llvm.lifetime.start.p0(i64 12, ptr %5) #6
  call void @llvm.lifetime.start.p0(i64 8, ptr %6) #6
  call void @llvm.lifetime.start.p0(i64 1, ptr %7) #6
  call void @llvm.lifetime.start.p0(i64 8, ptr %8) #6
  %16 = load ptr, ptr %2, align 8
  %17 = call i64 @SDL_NextAudioQueueIter(ptr noundef %16, ptr noundef %4, ptr noundef %5, ptr noundef %6, ptr noundef %7)
  store i64 %17, ptr %8, align 8
  %18 = load i64, ptr %8, align 8
  %19 = load i64, ptr %3, align 8
  %20 = sub i64 -1, %19
  %21 = icmp uge i64 %18, %20
  br i1 %21, label %22, label %23

22:                                               ; preds = %15
  store i64 -1, ptr %3, align 8
  store i32 3, ptr %9, align 4
  br label %27

23:                                               ; preds = %15
  %24 = load i64, ptr %8, align 8
  %25 = load i64, ptr %3, align 8
  %26 = add i64 %25, %24
  store i64 %26, ptr %3, align 8
  store i32 0, ptr %9, align 4
  br label %27

27:                                               ; preds = %23, %22
  call void @llvm.lifetime.end.p0(i64 8, ptr %8) #6
  call void @llvm.lifetime.end.p0(i64 1, ptr %7) #6
  call void @llvm.lifetime.end.p0(i64 8, ptr %6) #6
  call void @llvm.lifetime.end.p0(i64 12, ptr %5) #6
  %28 = load i32, ptr %9, align 4
  switch i32 %28, label %32 [
    i32 0, label %29
    i32 3, label %30
  ]

29:                                               ; preds = %27
  br label %12, !llvm.loop !10

30:                                               ; preds = %27, %12
  %31 = load i64, ptr %3, align 8
  store i32 1, ptr %9, align 4
  call void @llvm.lifetime.end.p0(i64 8, ptr %4) #6
  call void @llvm.lifetime.end.p0(i64 8, ptr %3) #6
  ret i64 %31

32:                                               ; preds = %27
  unreachable
}