; Function Attrs: nofree norecurse nosync nounwind memory(read, inaccessiblemem: none) uwtable
define hidden i64 @SDL_GetAudioQueueQueued(ptr noundef readonly captures(none) %0) local_unnamed_addr #8 {
  %2 = load ptr, ptr %0, align 8
  br label %3

3:                                                ; preds = %SDL_NextAudioQueueIter.exit, %1
  %.0 = phi ptr [ %2, %1 ], [ %.1.i, %SDL_NextAudioQueueIter.exit ]
  %.07 = phi i64 [ 0, %1 ], [ %19, %SDL_NextAudioQueueIter.exit ]
  %.not = icmp eq ptr %.0, null
  br i1 %.not, label %SDL_NextAudioQueueIter.exit.thread, label %.preheader

.preheader:                                       ; preds = %3, %11
  %.024.i = phi i64 [ %14, %11 ], [ 0, %3 ]
  %.021.i = phi ptr [ %13, %11 ], [ %.0, %3 ]
  %.not.i = icmp eq ptr %.021.i, null
  br i1 %.not.i, label %SDL_NextAudioQueueIter.exit, label %4

4:                                                ; preds = %.preheader
  %5 = getelementptr inbounds nuw i8, ptr %.021.i, i64 72
  %6 = load i64, ptr %5, align 8
  %7 = getelementptr inbounds nuw i8, ptr %.021.i, i64 64
  %8 = load i64, ptr %7, align 8
  %9 = sub i64 %6, %8
  %10 = xor i64 %.024.i, -1
  %.not28.i = icmp ult i64 %9, %10
  br i1 %.not28.i, label %11, label %SDL_NextAudioQueueIter.exit.thread

11:                                               ; preds = %4
  %12 = getelementptr inbounds nuw i8, ptr %.021.i, i64 32
  %13 = load ptr, ptr %12, align 8
  %14 = add i64 %9, %.024.i
  %15 = getelementptr inbounds nuw i8, ptr %.021.i, i64 24
  %16 = load i8, ptr %15, align 8, !range !7, !noundef !8
  %17 = trunc nuw i8 %16 to i1
  br i1 %17, label %SDL_NextAudioQueueIter.exit, label %.preheader

SDL_NextAudioQueueIter.exit:                      ; preds = %.preheader, %11
  %.125.i = phi i64 [ %.024.i, %.preheader ], [ %14, %11 ]
  %.1.i = phi ptr [ null, %.preheader ], [ %13, %11 ]
  %18 = xor i64 %.07, -1
  %.not9 = icmp ult i64 %.125.i, %18
  %19 = add i64 %.125.i, %.07
  br i1 %.not9, label %3, label %SDL_NextAudioQueueIter.exit.thread

SDL_NextAudioQueueIter.exit.thread:               ; preds = %SDL_NextAudioQueueIter.exit, %3, %4
  %.1 = phi i64 [ -1, %4 ], [ %.07, %3 ], [ -1, %SDL_NextAudioQueueIter.exit ]
  ret i64 %.1
}